; Function Attrs: mustprogress nofree norecurse nosync nounwind willreturn memory(argmem: write) uwtable
define void @Abc_NtkMfsParsDefault(ptr noundef writeonly captures(none) initializes((0, 68)) %0) local_unnamed_addr #0 {
  %2 = getelementptr inbounds nuw i8, ptr %0, i64 48
  tail call void @llvm.memset.p0.i64(ptr noundef nonnull align 4 dereferenceable(68) %2, i8 0, i64 12, i1 false)
  store i32 2, ptr %0, align 4, !tbaa !3
  %3 = getelementptr inbounds nuw i8, ptr %0, i64 4
  store i32 30, ptr %3, align 4, !tbaa !8
  %4 = getelementptr inbounds nuw i8, ptr %0, i64 8
  store i32 20, ptr %4, align 4, !tbaa !9
  %5 = getelementptr inbounds nuw i8, ptr %0, i64 12
  store i32 300, ptr %5, align 4, !tbaa !10
  %6 = getelementptr inbounds nuw i8, ptr %0, i64 16
  store i32 0, ptr %6, align 4, !tbaa !11
  %7 = getelementptr inbounds nuw i8, ptr %0, i64 20
  store i32 5000, ptr %7, align 4, !tbaa !12
  %8 = getelementptr inbounds nuw i8, ptr %0, i64 24
  store i32 0, ptr %8, align 4, !tbaa !13
  %9 = getelementptr inbounds nuw i8, ptr %0, i64 28
  store i32 1, ptr %9, align 4, !tbaa !14
  %10 = getelementptr inbounds nuw i8, ptr %0, i64 32
  %11 = getelementptr inbounds nuw i8, ptr %0, i64 60
  store i32 0, ptr %11, align 4, !tbaa !15
  %12 = getelementptr inbounds nuw i8, ptr %0, i64 64
  store i32 0, ptr %12, align 4, !tbaa !16
  tail call void @llvm.memset.p0.i64(ptr noundef nonnull align 4 dereferenceable(16) %10, i8 0, i64 16, i1 false)
  ret void
}